; Function Attrs: mustprogress nounwind uwtable
define dso_local void @_ZN4llvm7Mangler17getNameWithPrefixERNS_15SmallVectorImplIcEERKNS_5TwineERKNS_10DataLayoutE(ptr noundef nonnull align 8 dereferenceable(24) %0, ptr noundef nonnull align 8 dereferenceable(34) %1, ptr nocapture noundef nonnull readonly align 8 dereferenceable(512) %2) local_unnamed_addr #0 align 2 {
switch.lookup:
  %3 = alloca %"class.llvm::raw_svector_ostream", align 8
  %4 = getelementptr inbounds nuw i8, ptr %3, i64 8
  store i32 2, ptr %4, align 8
  %5 = getelementptr inbounds nuw i8, ptr %3, i64 40
  store i8 0, ptr %5, align 8
  %6 = getelementptr inbounds nuw i8, ptr %3, i64 44
  store i32 1, ptr %6, align 4
  %7 = getelementptr inbounds nuw i8, ptr %3, i64 16
  call void @llvm.memset.p0.i64(ptr noundef nonnull align 8 dereferenceable(24) %7, i8 0, i64 24, i1 false)
  store ptr getelementptr inbounds inrange(-16, 112) (i8, ptr @_ZTVN4llvm19raw_svector_ostreamE, i64 16), ptr %3, align 8
  %8 = getelementptr inbounds nuw i8, ptr %3, i64 48
  store ptr %0, ptr %8, align 8
  call void @_ZN4llvm11raw_ostream16SetBufferAndModeEPcmNS0_10BufferKindE(ptr noundef nonnull align 8 dereferenceable(48) %3, ptr noundef null, i64 noundef 0, i32 noundef 0) #10
  %9 = getelementptr inbounds nuw i8, ptr %2, i64 24
  %10 = load i32, ptr %9, align 8
  %switch.cast = zext i32 %10 to i64
  %switch.shiftamt = shl nuw nsw i64 %switch.cast, 3
  %switch.downshift = lshr i64 408028119040, %switch.shiftamt
  %switch.masked = trunc i64 %switch.downshift to i8
  call fastcc void @_ZL21getNameWithPrefixImplRN4llvm11raw_ostreamERKNS_5TwineEN12_GLOBAL__N_115ManglerPrefixTyERKNS_10DataLayoutEc(ptr noundef nonnull align 8 dereferenceable(48) %3, ptr noundef nonnull align 8 dereferenceable(34) %1, i32 noundef 0, ptr noundef nonnull align 8 dereferenceable(512) %2, i8 noundef signext %switch.masked)
  call void @_ZN4llvm11raw_ostreamD2Ev(ptr noundef nonnull align 8 dereferenceable(48) %3) #10
  ret void
}